; ModuleID = '38/508.c'
source_filename = "38/508.c"
target datalayout = "e-m:e-p270:32:32-p271:32:32-p272:64:64-i64:64-f80:128-n8:16:32:64-S128"
target triple = "x86_64-pc-linux-gnu"

@.str = private unnamed_addr constant [3 x i8] c"%d\00", align 1
@.str.1 = private unnamed_addr constant [4 x i8] c"%lf\00", align 1
@.str.2 = private unnamed_addr constant [7 x i8] c"%.5lf\0A\00", align 1

; Function Attrs: noinline nounwind uwtable
define dso_local i32 @main() #0 {
  %1 = alloca i32, align 4
  %2 = alloca i32, align 4
  %3 = alloca i32, align 4
  %4 = alloca i32, align 4
  %5 = alloca double*, align 8
  %6 = alloca double*, align 8
  %7 = alloca i32, align 4
  %8 = alloca double*, align 8
  store i32 0, i32* %1, align 4
  %9 = call i32 (i8*, ...) @__isoc99_scanf(i8* getelementptr inbounds ([3 x i8], [3 x i8]* @.str, i64 0, i64 0), i32* %2)
  %10 = load i32, i32* %2, align 4
  %11 = sext i32 %10 to i64
  %12 = mul i64 8, %11
  %13 = call noalias i8* @malloc(i64 %12) #3
  %14 = bitcast i8* %13 to double*
  store double* %14, double** %5, align 8
  %15 = load i32, i32* %2, align 4
  %16 = sext i32 %15 to i64
  %17 = mul i64 8, %16
  %18 = call noalias i8* @malloc(i64 %17) #3
  %19 = bitcast i8* %18 to double*
  store double* %19, double** %6, align 8
  store i32 0, i32* %3, align 4
  br label %20

20:                                               ; preds = %33, %0
  %21 = load i32, i32* %3, align 4
  %22 = load i32, i32* %2, align 4
  %23 = icmp slt i32 %21, %22
  br i1 %23, label %24, label %36

24:                                               ; preds = %20
  %25 = load double*, double** %5, align 8
  %26 = load i32, i32* %3, align 4
  %27 = sext i32 %26 to i64
  %28 = getelementptr inbounds double, double* %25, i64 %27
  store double 0.000000e+00, double* %28, align 8
  %29 = load double*, double** %6, align 8
  %30 = load i32, i32* %3, align 4
  %31 = sext i32 %30 to i64
  %32 = getelementptr inbounds double, double* %29, i64 %31
  store double 0.000000e+00, double* %32, align 8
  br label %33

33:                                               ; preds = %24
  %34 = load i32, i32* %3, align 4
  %35 = add nsw i32 %34, 1
  store i32 %35, i32* %3, align 4
  br label %20

36:                                               ; preds = %20
  store i32 0, i32* %3, align 4
  br label %37

37:                                               ; preds = %118, %36
  %38 = load i32, i32* %3, align 4
  %39 = load i32, i32* %2, align 4
  %40 = icmp slt i32 %38, %39
  br i1 %40, label %41, label %121

41:                                               ; preds = %37
  %42 = call i32 (i8*, ...) @__isoc99_scanf(i8* getelementptr inbounds ([3 x i8], [3 x i8]* @.str, i64 0, i64 0), i32* %7)
  %43 = load i32, i32* %7, align 4
  %44 = sext i32 %43 to i64
  %45 = mul i64 8, %44
  %46 = call noalias i8* @malloc(i64 %45) #3
  %47 = bitcast i8* %46 to double*
  store double* %47, double** %8, align 8
  store i32 0, i32* %4, align 4
  br label %48

48:                                               ; preds = %72, %41
  %49 = load i32, i32* %4, align 4
  %50 = load i32, i32* %7, align 4
  %51 = icmp slt i32 %49, %50
  br i1 %51, label %52, label %75

52:                                               ; preds = %48
  %53 = load double*, double** %8, align 8
  %54 = load i32, i32* %4, align 4
  %55 = sext i32 %54 to i64
  %56 = getelementptr inbounds double, double* %53, i64 %55
  %57 = call i32 (i8*, ...) @__isoc99_scanf(i8* getelementptr inbounds ([4 x i8], [4 x i8]* @.str.1, i64 0, i64 0), double* %56)
  %58 = load double*, double** %8, align 8
  %59 = load i32, i32* %4, align 4
  %60 = sext i32 %59 to i64
  %61 = getelementptr inbounds double, double* %58, i64 %60
  %62 = load double, double* %61, align 8
  %63 = load i32, i32* %7, align 4
  %64 = sitofp i32 %63 to double
  %65 = fdiv double %62, %64
  %66 = load double*, double** %6, align 8
  %67 = load i32, i32* %3, align 4
  %68 = sext i32 %67 to i64
  %69 = getelementptr inbounds double, double* %66, i64 %68
  %70 = load double, double* %69, align 8
  %71 = fadd double %70, %65
  store double %71, double* %69, align 8
  br label %72

72:                                               ; preds = %52
  %73 = load i32, i32* %4, align 4
  %74 = add nsw i32 %73, 1
  store i32 %74, i32* %4, align 4
  br label %48

75:                                               ; preds = %48
  store i32 0, i32* %4, align 4
  br label %76

76:                                               ; preds = %102, %75
  %77 = load i32, i32* %4, align 4
  %78 = load i32, i32* %7, align 4
  %79 = icmp slt i32 %77, %78
  br i1 %79, label %80, label %105

80:                                               ; preds = %76
  %81 = load double*, double** %8, align 8
  %82 = load i32, i32* %4, align 4
  %83 = sext i32 %82 to i64
  %84 = getelementptr inbounds double, double* %81, i64 %83
  %85 = load double, double* %84, align 8
  %86 = load double*, double** %6, align 8
  %87 = load i32, i32* %3, align 4
  %88 = sext i32 %87 to i64
  %89 = getelementptr inbounds double, double* %86, i64 %88
  %90 = load double, double* %89, align 8
  %91 = fsub double %85, %90
  %92 = call double @pow(double %91, double 2.000000e+00) #3
  %93 = load i32, i32* %7, align 4
  %94 = sitofp i32 %93 to double
  %95 = fdiv double %92, %94
  %96 = load double*, double** %5, align 8
  %97 = load i32, i32* %3, align 4
  %98 = sext i32 %97 to i64
  %99 = getelementptr inbounds double, double* %96, i64 %98
  %100 = load double, double* %99, align 8
  %101 = fadd double %100, %95
  store double %101, double* %99, align 8
  br label %102

102:                                              ; preds = %80
  %103 = load i32, i32* %4, align 4
  %104 = add nsw i32 %103, 1
  store i32 %104, i32* %4, align 4
  br label %76

105:                                              ; preds = %76
  %106 = load double*, double** %5, align 8
  %107 = load i32, i32* %3, align 4
  %108 = sext i32 %107 to i64
  %109 = getelementptr inbounds double, double* %106, i64 %108
  %110 = load double, double* %109, align 8
  %111 = call double @pow(double %110, double 5.000000e-01) #3
  %112 = load double*, double** %5, align 8
  %113 = load i32, i32* %3, align 4
  %114 = sext i32 %113 to i64
  %115 = getelementptr inbounds double, double* %112, i64 %114
  store double %111, double* %115, align 8
  %116 = load double*, double** %8, align 8
  %117 = bitcast double* %116 to i8*
  call void @free(i8* %117) #3
  br label %118

118:                                              ; preds = %105
  %119 = load i32, i32* %3, align 4
  %120 = add nsw i32 %119, 1
  store i32 %120, i32* %3, align 4
  br label %37

121:                                              ; preds = %37
  store i32 0, i32* %3, align 4
  br label %122

122:                                              ; preds = %133, %121
  %123 = load i32, i32* %3, align 4
  %124 = load i32, i32* %2, align 4
  %125 = icmp slt i32 %123, %124
  br i1 %125, label %126, label %136

126:                                              ; preds = %122
  %127 = load double*, double** %5, align 8
  %128 = load i32, i32* %3, align 4
  %129 = sext i32 %128 to i64
  %130 = getelementptr inbounds double, double* %127, i64 %129
  %131 = load double, double* %130, align 8
  %132 = call i32 (i8*, ...) @printf(i8* getelementptr inbounds ([7 x i8], [7 x i8]* @.str.2, i64 0, i64 0), double %131)
  br label %133

133:                                              ; preds = %126
  %134 = load i32, i32* %3, align 4
  %135 = add nsw i32 %134, 1
  store i32 %135, i32* %3, align 4
  br label %122

136:                                              ; preds = %122
  ret i32 0
}

declare dso_local i32 @__isoc99_scanf(i8*, ...) #1

; Function Attrs: nounwind
declare dso_local noalias i8* @malloc(i64) #2

; Function Attrs: nounwind
declare dso_local double @pow(double, double) #2

; Function Attrs: nounwind
declare dso_local void @free(i8*) #2

declare dso_local i32 @printf(i8*, ...) #1


!llvm.module.flags = !{!0}
!llvm.ident = !{!1}

!0 = !{i32 1, !"wchar_size", i32 4}
!1 = !{!"clang version 10.0.0-4ubuntu1 "}
